(dp0
S'METTS MARK'
p1
(dp2
S'salary'
p3
F365788.0
sS'to_messages'
p4
I807
sS'deferral_payments'
p5
F0.0
sS'total_payments'
p6
F1061827.0
sS'long_term_incentive'
p7
F0.0
sS'loan_advances'
p8
F0.0
sS'bonus'
p9
F600000.0
sS'restricted_stock'
p10
F585062.0
sS'restricted_stock_deferred'
p11
F0.0
sS'total_stock_value'
p12
F585062.0
sS'expenses'
p13
F94299.0
sS'from_poi_to_this_person'
p14
I38
sS'exercised_stock_options'
p15
F0.0
sS'from_messages'
p16
I29
sS'other'
p17
F1740.0
sS'from_this_person_to_poi'
p18
I1
sS'poi'
p19
I00
sS'deferred_income'
p20
F0.0
sS'shared_receipt_with_poi'
p21
I702
sS'email_address'
p22
S'mark.metts@enron.com'
p23
sS'director_fees'
p24
F0.0
ssS'BAXTER JOHN C'
p25
(dp26
g3
F267102.0
sg4
S'NaN'
p27
sg5
F1295738.0
sg6
F5634343.0
sg7
F1586055.0
sg8
F0.0
sg9
F1200000.0
sg10
F3942714.0
sg11
F0.0
sg12
F10623258.0
sg13
F11200.0
sg14
g27
sg15
F6680544.0
sg16
g27
sg17
F2660303.0
sg18
g27
sg19
I00
sg20
F-1386055.0
sg21
g27
sg22
g27
sg24
F0.0
ssS'ELLIOTT STEVEN'
p28
(dp29
g3
F170941.0
sg4
g27
sg5
F0.0
sg6
F211725.0
sg7
F0.0
sg8
F0.0
sg9
F350000.0
sg10
F1788391.0
sg11
F0.0
sg12
F6678735.0
sg13
F78552.0
sg14
g27
sg15
F4890344.0
sg16
g27
sg17
F12961.0
sg18
g27
sg19
I00
sg20
F-400729.0
sg21
g27
sg22
S'steven.elliott@enron.com'
p30
sg24
F0.0
ssS'CORDES WILLIAM R'
p31
(dp32
g3
F0.0
sg4
I764
sg5
F0.0
sg6
F0.0
sg7
F0.0
sg8
F0.0
sg9
F0.0
sg10
F386335.0
sg11
F0.0
sg12
F1038185.0
sg13
F0.0
sg14
I10
sg15
F651850.0
sg16
I12
sg17
F0.0
sg18
I0
sg19
I00
sg20
F0.0
sg21
I58
sg22
S'bill.cordes@enron.com'
p33
sg24
F0.0
ssS'HANNON KEVIN P'
p34
(dp35
g3
F243293.0
sg4
I1045
sg5
F0.0
sg6
F288682.0
sg7
F1617011.0
sg8
F0.0
sg9
F1500000.0
sg10
F853064.0
sg11
F0.0
sg12
F6391065.0
sg13
F34039.0
sg14
I32
sg15
F5538001.0
sg16
I32
sg17
F11350.0
sg18
I21
sg19
I01
sg20
F-3117011.0
sg21
I1035
sg22
S'kevin.hannon@enron.com'
p36
sg24
F0.0
ssS'MORDAUNT KRISTINA M'
p37
(dp38
g3
F267093.0
sg4
g27
sg5
F0.0
sg6
F628522.0
sg7
F0.0
sg8
F0.0
sg9
F325000.0
sg10
F208510.0
sg11
F0.0
sg12
F208510.0
sg13
F35018.0
sg14
g27
sg15
F0.0
sg16
g27
sg17
F1411.0
sg18
g27
sg19
I00
sg20
F0.0
sg21
g27
sg22
S'kristina.mordaunt@enron.com'
p39
sg24
F0.0
ssS'MEYER ROCKFORD G'
p40
(dp41
g3
F0.0
sg4
I232
sg5
F1848227.0
sg6
F1848227.0
sg7
F0.0
sg8
F0.0
sg9
F0.0
sg10
F462384.0
sg11
F0.0
sg12
F955873.0
sg13
F0.0
sg14
I0
sg15
F493489.0
sg16
I28
sg17
F0.0
sg18
I0
sg19
I00
sg20
F0.0
sg21
I22
sg22
S'rockford.meyer@enron.com'
p42
sg24
F0.0
ssS'MCMAHON JEFFREY'
p43
(dp44
g3
F370448.0
sg4
I2355
sg5
F0.0
sg6
F4099771.0
sg7
F694862.0
sg8
F0.0
sg9
F2600000.0
sg10
F558801.0
sg11
F0.0
sg12
F1662855.0
sg13
F137108.0
sg14
I58
sg15
F1104054.0
sg16
I48
sg17
F297353.0
sg18
I26
sg19
I00
sg20
F0.0
sg21
I2228
sg22
S'jeffrey.mcmahon@enron.com'
p45
sg24
F0.0
ssS'HORTON STANLEY C'
p46
(dp47
g3
F0.0
sg4
I2350
sg5
F3131860.0
sg6
F3131860.0
sg7
F0.0
sg8
F0.0
sg9
F0.0
sg10
F2046079.0
sg11
F0.0
sg12
F7256648.0
sg13
F0.0
sg14
I44
sg15
F5210569.0
sg16
I1073
sg17
F0.0
sg18
I15
sg19
I00
sg20
F0.0
sg21
I1074
sg22
S'stanley.horton@enron.com'
p48
sg24
F0.0
ssS'PIPER GREGORY F'
p49
(dp50
g3
F197091.0
sg4
I1238
sg5
F1130036.0
sg6
F1737629.0
sg7
F0.0
sg8
F0.0
sg9
F400000.0
sg10
F409554.0
sg11
F-409554.0
sg12
F880290.0
sg13
F43057.0
sg14
I61
sg15
F880290.0
sg16
I222
sg17
F778.0
sg18
I48
sg19
I00
sg20
F-33333.0
sg21
I742
sg22
S'greg.piper@enron.com'
p51
sg24
F0.0
ssS'HUMPHREY GENE E'
p52
(dp53
g3
F130724.0
sg4
I128
sg5
F2964506.0
sg6
F3100224.0
sg7
F0.0
sg8
F0.0
sg9
F0.0
sg10
F0.0
sg11
F0.0
sg12
F2282768.0
sg13
F4994.0
sg14
I10
sg15
F2282768.0
sg16
I17
sg17
F0.0
sg18
I17
sg19
I00
sg20
F0.0
sg21
I119
sg22
S'gene.humphrey@enron.com'
p54
sg24
F0.0
ssS'UMANOFF ADAM S'
p55
(dp56
g3
F288589.0
sg4
I111
sg5
F0.0
sg6
F1130461.0
sg7
F0.0
sg8
F0.0
sg9
F788750.0
sg10
F0.0
sg11
F0.0
sg12
F0.0
sg13
F53122.0
sg14
I12
sg15
F0.0
sg16
I18
sg17
F0.0
sg18
I0
sg19
I00
sg20
F0.0
sg21
I41
sg22
S'adam.umanoff@enron.com'
p57
sg24
F0.0
ssS'BLACHMAN JEREMY M'
p58
(dp59
g3
F248546.0
sg4
I2475
sg5
F0.0
sg6
F2014835.0
sg7
F831809.0
sg8
F0.0
sg9
F850000.0
sg10
F189041.0
sg11
F0.0
sg12
F954354.0
sg13
F84208.0
sg14
I25
sg15
F765313.0
sg16
I14
sg17
F272.0
sg18
I2
sg19
I00
sg20
F0.0
sg21
I2326
sg22
S'jeremy.blachman@enron.com'
p60
sg24
F0.0
ssS'SUNDE MARTIN'
p61
(dp62
g3
F257486.0
sg4
I2647
sg5
F0.0
sg6
F1545059.0
sg7
F476451.0
sg8
F0.0
sg9
F700000.0
sg10
F698920.0
sg11
F0.0
sg12
F698920.0
sg13
F0.0
sg14
I37
sg15
F0.0
sg16
I38
sg17
F111122.0
sg18
I13
sg19
I00
sg20
F0.0
sg21
I2565
sg22
S'marty.sunde@enron.com'
p63
sg24
F0.0
ssS'GIBBS DANA R'
p64
(dp65
g3
F0.0
sg4
I169
sg5
F504610.0
sg6
F966522.0
sg7
F461912.0
sg8
F0.0
sg9
F0.0
sg10
F0.0
sg11
F0.0
sg12
F2218275.0
sg13
F0.0
sg14
I0
sg15
F2218275.0
sg16
I12
sg17
F0.0
sg18
I0
sg19
I00
sg20
F0.0
sg21
I23
sg22
S'dana.gibbs@enron.com'
p66
sg24
F0.0
ssS'LOWRY CHARLES P'
p67
(dp68
g3
F0.0
sg4
g27
sg5
F0.0
sg6
F0.0
sg7
F0.0
sg8
F0.0
sg9
F0.0
sg10
F153686.0
sg11
F-153686.0
sg12
F372205.0
sg13
F0.0
sg14
g27
sg15
F372205.0
sg16
g27
sg17
F0.0
sg18
g27
sg19
I00
sg20
F0.0
sg21
g27
sg22
g27
sg24
F0.0
ssS'COLWELL WESLEY'
p69
(dp70
g3
F288542.0
sg4
I1758
sg5
F27610.0
sg6
F1490344.0
sg7
F0.0
sg8
F0.0
sg9
F1200000.0
sg10
F698242.0
sg11
F0.0
sg12
F698242.0
sg13
F16514.0
sg14
I240
sg15
F0.0
sg16
I40
sg17
F101740.0
sg18
I11
sg19
I01
sg20
F-144062.0
sg21
I1132
sg22
S'wes.colwell@enron.com'
p71
sg24
F0.0
ssS'MULLER MARK S'
p72
(dp73
g3
F251654.0
sg4
I136
sg5
F842924.0
sg6
F3202070.0
sg7
F1725545.0
sg8
F0.0
sg9
F1100000.0
sg10
F360528.0
sg11
F0.0
sg12
F1416848.0
sg13
F0.0
sg14
I12
sg15
F1056320.0
sg16
I16
sg17
F947.0
sg18
I0
sg19
I00
sg20
F-719000.0
sg21
I114
sg22
S's..muller@enron.com'
p74
sg24
F0.0
ssS'JACKSON CHARLENE R'
p75
(dp76
g3
F288558.0
sg4
I258
sg5
F0.0
sg6
F551174.0
sg7
F0.0
sg8
F0.0
sg9
F250000.0
sg10
F540672.0
sg11
F0.0
sg12
F725735.0
sg13
F10181.0
sg14
I25
sg15
F185063.0
sg16
I56
sg17
F2435.0
sg18
I19
sg19
I00
sg20
F0.0
sg21
I117
sg22
S'charlene.jackson@enron.com'
p77
sg24
F0.0
ssS'WESTFAHL RICHARD K'
p78
(dp79
g3
F63744.0
sg4
g27
sg5
F0.0
sg6
F762135.0
sg7
F256191.0
sg8
F0.0
sg9
F0.0
sg10
F384930.0
sg11
F0.0
sg12
F384930.0
sg13
F51870.0
sg14
g27
sg15
F0.0
sg16
g27
sg17
F401130.0
sg18
g27
sg19
I00
sg20
F-10800.0
sg21
g27
sg22
S'dick.westfahl@enron.com'
p80
sg24
F0.0
ssS'WALTERS GARETH W'
p81
(dp82
g3
F0.0
sg4
g27
sg5
F53625.0
sg6
F87410.0
sg7
F0.0
sg8
F0.0
sg9
F0.0
sg10
F0.0
sg11
F0.0
sg12
F1030329.0
sg13
F33785.0
sg14
g27
sg15
F1030329.0
sg16
g27
sg17
F0.0
sg18
g27
sg19
I00
sg20
F0.0
sg21
g27
sg22
g27
sg24
F0.0
ssS'WALLS JR ROBERT H'
p83
(dp84
g3
F357091.0
sg4
I671
sg5
F0.0
sg6
F1798780.0
sg7
F540751.0
sg8
F0.0
sg9
F850000.0
sg10
F1552453.0
sg11
F0.0
sg12
F5898997.0
sg13
F50936.0
sg14
I17
sg15
F4346544.0
sg16
I146
sg17
F2.0
sg18
I0
sg19
I00
sg20
F0.0
sg21
I215
sg22
S'rob.walls@enron.com'
p85
sg24
F0.0
ssS'KITCHEN LOUISE'
p86
(dp87
g3
F271442.0
sg4
I8305
sg5
F0.0
sg6
F3471141.0
sg7
F0.0
sg8
F0.0
sg9
F3100000.0
sg10
F466101.0
sg11
F0.0
sg12
F547143.0
sg13
F5774.0
sg14
I251
sg15
F81042.0
sg16
I1728
sg17
F93925.0
sg18
I194
sg19
I00
sg20
F0.0
sg21
I3669
sg22
S'louise.kitchen@enron.com'
p88
sg24
F0.0
ssS'CHAN RONNIE'
p89
(dp90
g3
F0.0
sg4
g27
sg5
F0.0
sg6
F0.0
sg7
F0.0
sg8
F0.0
sg9
F0.0
sg10
F32460.0
sg11
F-32460.0
sg12
F0.0
sg13
F0.0
sg14
g27
sg15
F0.0
sg16
g27
sg17
F0.0
sg18
g27
sg19
I00
sg20
F-98784.0
sg21
g27
sg22
g27
sg24
F98784.0
ssS'BELFER ROBERT'
p91
(dp92
g3
F0.0
sg4
g27
sg5
F-102500.0
sg6
F102500.0
sg7
F0.0
sg8
F0.0
sg9
F0.0
sg10
F0.0
sg11
F44093.0
sg12
F-44093.0
sg13
F0.0
sg14
g27
sg15
F3285.0
sg16
g27
sg17
F0.0
sg18
g27
sg19
I00
sg20
F0.0
sg21
g27
sg22
g27
sg24
F3285.0
ssS'SHANKMAN JEFFREY A'
p93
(dp94
g3
F304110.0
sg4
I3221
sg5
F0.0
sg6
F3038702.0
sg7
F554422.0
sg8
F0.0
sg9
F2000000.0
sg10
F630137.0
sg11
F0.0
sg12
F2072035.0
sg13
F178979.0
sg14
I94
sg15
F1441898.0
sg16
I2681
sg17
F1191.0
sg18
I83
sg19
I00
sg20
F0.0
sg21
I1730
sg22
S'jeffrey.shankman@enron.com'
p95
sg24
F0.0
ssS'WODRASKA JOHN'
p96
(dp97
g3
F0.0
sg4
g27
sg5
F0.0
sg6
F189583.0
sg7
F0.0
sg8
F0.0
sg9
F0.0
sg10
F0.0
sg11
F0.0
sg12
F0.0
sg13
F0.0
sg14
g27
sg15
F0.0
sg16
g27
sg17
F189583.0
sg18
g27
sg19
I00
sg20
F0.0
sg21
g27
sg22
S'john.wodraska@enron.com'
p98
sg24
F0.0
ssS'BERGSIEKER RICHARD P'
p99
(dp100
g3
F187922.0
sg4
I383
sg5
F0.0
sg6
F618850.0
sg7
F180250.0
sg8
F0.0
sg9
F250000.0
sg10
F659249.0
sg11
F0.0
sg12
F659249.0
sg13
F59175.0
sg14
I4
sg15
F0.0
sg16
I59
sg17
F427316.0
sg18
I0
sg19
I00
sg20
F-485813.0
sg21
I233
sg22
S'rick.bergsieker@enron.com'
p101
sg24
F0.0
ssS'URQUHART JOHN A'
p102
(dp103
g3
F0.0
sg4
g27
sg5
F0.0
sg6
F228656.0
sg7
F0.0
sg8
F0.0
sg9
F0.0
sg10
F0.0
sg11
F0.0
sg12
F0.0
sg13
F228656.0
sg14
g27
sg15
F0.0
sg16
g27
sg17
F0.0
sg18
g27
sg19
I00
sg20
F-36666.0
sg21
g27
sg22
g27
sg24
F36666.0
ssS'BIBI PHILIPPE A'
p104
(dp105
g3
F213625.0
sg4
I1607
sg5
F0.0
sg6
F2047593.0
sg7
F369721.0
sg8
F0.0
sg9
F1000000.0
sg10
F378082.0
sg11
F0.0
sg12
F1843816.0
sg13
F38559.0
sg14
I23
sg15
F1465734.0
sg16
I40
sg17
F425688.0
sg18
I8
sg19
I00
sg20
F0.0
sg21
I1336
sg22
S'philippe.bibi@enron.com'
p106
sg24
F0.0
ssS'PIRO JIM'
p107
(dp108
g3
F0.0
sg4
I58
sg5
F0.0
sg6
F0.0
sg7
F0.0
sg8
F0.0
sg9
F0.0
sg10
F47304.0
sg11
F0.0
sg12
F47304.0
sg13
F0.0
sg14
I0
sg15
F0.0
sg16
I16
sg17
F0.0
sg18
I1
sg19
I00
sg20
F0.0
sg21
I3
sg22
S'jim.piro@enron.com'
p109
sg24
F0.0
ssS'RIEKER PAULA H'
p110
(dp111
g3
F249201.0
sg4
I1328
sg5
F214678.0
sg6
F1099100.0
sg7
F0.0
sg8
F0.0
sg9
F700000.0
sg10
F283649.0
sg11
F0.0
sg12
F1918887.0
sg13
F33271.0
sg14
I35
sg15
F1635238.0
sg16
I82
sg17
F1950.0
sg18
I48
sg19
I01
sg20
F-100000.0
sg21
I1258
sg22
S'paula.rieker@enron.com'
p112
sg24
F0.0
ssS'WHALEY DAVID A'
p113
(dp114
g3
F0.0
sg4
g27
sg5
F0.0
sg6
F0.0
sg7
F0.0
sg8
F0.0
sg9
F0.0
sg10
F0.0
sg11
F0.0
sg12
F98718.0
sg13
F0.0
sg14
g27
sg15
F98718.0
sg16
g27
sg17
F0.0
sg18
g27
sg19
I00
sg20
F0.0
sg21
g27
sg22
g27
sg24
F0.0
ssS'BECK SALLY W'
p115
(dp116
g3
F231330.0
sg4
I7315
sg5
F0.0
sg6
F969068.0
sg7
F0.0
sg8
F0.0
sg9
F700000.0
sg10
F126027.0
sg11
F0.0
sg12
F126027.0
sg13
F37172.0
sg14
I144
sg15
F0.0
sg16
I4343
sg17
F566.0
sg18
I386
sg19
I00
sg20
F0.0
sg21
I2639
sg22
S'sally.beck@enron.com'
p117
sg24
F0.0
ssS'HAUG DAVID L'
p118
(dp119
g3
F0.0
sg4
I573
sg5
F0.0
sg6
F475.0
sg7
F0.0
sg8
F0.0
sg9
F0.0
sg10
F2217299.0
sg11
F0.0
sg12
F2217299.0
sg13
F475.0
sg14
I4
sg15
F0.0
sg16
I19
sg17
F0.0
sg18
I7
sg19
I00
sg20
F0.0
sg21
I471
sg22
S'david.haug@enron.com'
p120
sg24
F0.0
ssS'ECHOLS JOHN B'
p121
(dp122
g3
F182245.0
sg4
g27
sg5
F0.0
sg6
F2692324.0
sg7
F2234774.0
sg8
F0.0
sg9
F200000.0
sg10
F407503.0
sg11
F0.0
sg12
F1008941.0
sg13
F21530.0
sg14
g27
sg15
F601438.0
sg16
g27
sg17
F53775.0
sg18
g27
sg19
I00
sg20
F0.0
sg21
g27
sg22
S'john.echols@enron.com'
p123
sg24
F0.0
ssS'MENDELSOHN JOHN'
p124
(dp125
g3
F0.0
sg4
g27
sg5
F0.0
sg6
F148.0
sg7
F0.0
sg8
F0.0
sg9
F0.0
sg10
F0.0
sg11
F0.0
sg12
F0.0
sg13
F148.0
sg14
g27
sg15
F0.0
sg16
g27
sg17
F0.0
sg18
g27
sg19
I00
sg20
F-103750.0
sg21
g27
sg22
g27
sg24
F103750.0
ssS'HICKERSON GARY J'
p126
(dp127
g3
F211788.0
sg4
I1320
sg5
F0.0
sg6
F2081796.0
sg7
F69223.0
sg8
F0.0
sg9
F1700000.0
sg10
F441096.0
sg11
F0.0
sg12
F441096.0
sg13
F98849.0
sg14
I40
sg15
F0.0
sg16
I27
sg17
F1936.0
sg18
I1
sg19
I00
sg20
F0.0
sg21
I900
sg22
S'gary.hickerson@enron.com'
p128
sg24
F0.0
ssS'CLINE KENNETH W'
p129
(dp130
g3
F0.0
sg4
g27
sg5
F0.0
sg6
F0.0
sg7
F0.0
sg8
F0.0
sg9
F0.0
sg10
F662086.0
sg11
F-472568.0
sg12
F189518.0
sg13
F0.0
sg14
g27
sg15
F0.0
sg16
g27
sg17
F0.0
sg18
g27
sg19
I00
sg20
F0.0
sg21
g27
sg22
g27
sg24
F0.0
ssS'LEWIS RICHARD'
p131
(dp132
g3
F0.0
sg4
I952
sg5
F0.0
sg6
F0.0
sg7
F0.0
sg8
F0.0
sg9
F0.0
sg10
F0.0
sg11
F0.0
sg12
F850477.0
sg13
F0.0
sg14
I10
sg15
F850477.0
sg16
I26
sg17
F0.0
sg18
I0
sg19
I00
sg20
F0.0
sg21
I739
sg22
S'richard.lewis@enron.com'
p133
sg24
F0.0
ssS'HAYES ROBERT E'
p134
(dp135
g3
F0.0
sg4
I504
sg5
F7961.0
sg6
F7961.0
sg7
F0.0
sg8
F0.0
sg9
F0.0
sg10
F151418.0
sg11
F0.0
sg12
F151418.0
sg13
F0.0
sg14
I16
sg15
F0.0
sg16
I12
sg17
F0.0
sg18
I0
sg19
I00
sg20
F0.0
sg21
I50
sg22
S'robert.hayes@enron.com'
p136
sg24
F0.0
ssS'KOPPER MICHAEL J'
p137
(dp138
g3
F224305.0
sg4
g27
sg5
F0.0
sg6
F2652612.0
sg7
F602671.0
sg8
F0.0
sg9
F800000.0
sg10
F985032.0
sg11
F0.0
sg12
F985032.0
sg13
F118134.0
sg14
g27
sg15
F0.0
sg16
g27
sg17
F907502.0
sg18
g27
sg19
I01
sg20
F0.0
sg21
g27
sg22
S'michael.kopper@enron.com'
p139
sg24
F0.0
ssS'LEFF DANIEL P'
p140
(dp141
g3
F273746.0
sg4
I2822
sg5
F0.0
sg6
F2664228.0
sg7
F1387399.0
sg8
F0.0
sg9
F1000000.0
sg10
F360528.0
sg11
F0.0
sg12
F360528.0
sg13
F0.0
sg14
I67
sg15
F0.0
sg16
I63
sg17
F3083.0
sg18
I14
sg19
I00
sg20
F0.0
sg21
I2672
sg22
S'dan.leff@enron.com'
p142
sg24
F0.0
ssS'LAVORATO JOHN J'
p143
(dp144
g3
F339288.0
sg4
I7259
sg5
F0.0
sg6
F10425757.0
sg7
F2035380.0
sg8
F0.0
sg9
F8000000.0
sg10
F1008149.0
sg11
F0.0
sg12
F5167144.0
sg13
F49537.0
sg14
I528
sg15
F4158995.0
sg16
I2585
sg17
F1552.0
sg18
I411
sg19
I00
sg20
F0.0
sg21
I3962
sg22
S'john.lavorato@enron.com'
p145
sg24
F0.0
ssS'BERBERIAN DAVID'
p146
(dp147
g3
F216582.0
sg4
g27
sg5
F0.0
sg6
F228474.0
sg7
F0.0
sg8
F0.0
sg9
F0.0
sg10
F869220.0
sg11
F0.0
sg12
F2493616.0
sg13
F11892.0
sg14
g27
sg15
F1624396.0
sg16
g27
sg17
F0.0
sg18
g27
sg19
I00
sg20
F0.0
sg21
g27
sg22
S'david.berberian@enron.com'
p148
sg24
F0.0
ssS'DETMERING TIMOTHY J'
p149
(dp150
g3
F210500.0
sg4
g27
sg5
F875307.0
sg6
F1204583.0
sg7
F415657.0
sg8
F0.0
sg9
F425000.0
sg10
F315068.0
sg11
F-315068.0
sg12
F2027865.0
sg13
F52255.0
sg14
g27
sg15
F2027865.0
sg16
g27
sg17
F1105.0
sg18
g27
sg19
I00
sg20
F-775241.0
sg21
g27
sg22
S'timothy.detmering@enron.com'
p151
sg24
F0.0
ssS'WAKEHAM JOHN'
p152
(dp153
g3
F0.0
sg4
g27
sg5
F0.0
sg6
F213071.0
sg7
F0.0
sg8
F0.0
sg9
F0.0
sg10
F0.0
sg11
F0.0
sg12
F0.0
sg13
F103773.0
sg14
g27
sg15
F0.0
sg16
g27
sg17
F0.0
sg18
g27
sg19
I00
sg20
F0.0
sg21
g27
sg22
g27
sg24
F109298.0
ssS'POWERS WILLIAM'
p154
(dp155
g3
F0.0
sg4
I653
sg5
F0.0
sg6
F0.0
sg7
F0.0
sg8
F0.0
sg9
F0.0
sg10
F0.0
sg11
F0.0
sg12
F0.0
sg13
F0.0
sg14
I0
sg15
F0.0
sg16
I26
sg17
F0.0
sg18
I0
sg19
I00
sg20
F-17500.0
sg21
I12
sg22
S'ken.powers@enron.com'
p156
sg24
F17500.0
ssS'GOLD JOSEPH'
p157
(dp158
g3
F272880.0
sg4
g27
sg5
F0.0
sg6
F2146973.0
sg7
F304805.0
sg8
F0.0
sg9
F750000.0
sg10
F441096.0
sg11
F0.0
sg12
F877611.0
sg13
F0.0
sg14
g27
sg15
F436515.0
sg16
g27
sg17
F819288.0
sg18
g27
sg19
I00
sg20
F0.0
sg21
g27
sg22
S'joe.gold@enron.com'
p159
sg24
F0.0
ssS'BANNANTINE JAMES M'
p160
(dp161
g3
F477.0
sg4
I566
sg5
F0.0
sg6
F916197.0
sg7
F0.0
sg8
F0.0
sg9
F0.0
sg10
F1757552.0
sg11
F-560222.0
sg12
F5243487.0
sg13
F56301.0
sg14
I39
sg15
F4046157.0
sg16
I29
sg17
F864523.0
sg18
I0
sg19
I00
sg20
F-5104.0
sg21
I465
sg22
S'james.bannantine@enron.com'
p162
sg24
F0.0
ssS'DUNCAN JOHN H'
p163
(dp164
g3
F0.0
sg4
g27
sg5
F0.0
sg6
F77492.0
sg7
F0.0
sg8
F0.0
sg9
F0.0
sg10
F0.0
sg11
F0.0
sg12
F371750.0
sg13
F0.0
sg14
g27
sg15
F371750.0
sg16
g27
sg17
F0.0
sg18
g27
sg19
I00
sg20
F-25000.0
sg21
g27
sg22
g27
sg24
F102492.0
ssS'SHAPIRO RICHARD S'
p165
(dp166
g3
F269076.0
sg4
I15149
sg5
F0.0
sg6
F1057548.0
sg7
F0.0
sg8
F0.0
sg9
F650000.0
sg10
F379164.0
sg11
F0.0
sg12
F987001.0
sg13
F137767.0
sg14
I74
sg15
F607837.0
sg16
I1215
sg17
F705.0
sg18
I65
sg19
I00
sg20
F0.0
sg21
I4527
sg22
S'richard.shapiro@enron.com'
p167
sg24
F0.0
ssS'SHERRIFF JOHN R'
p168
(dp169
g3
F428780.0
sg4
I3187
sg5
F0.0
sg6
F4335388.0
sg7
F554422.0
sg8
F0.0
sg9
F1500000.0
sg10
F1293424.0
sg11
F0.0
sg12
F3128982.0
sg13
F0.0
sg14
I28
sg15
F1835558.0
sg16
I92
sg17
F1852186.0
sg18
I23
sg19
I00
sg20
F0.0
sg21
I2103
sg22
S'john.sherriff@enron.com'
p170
sg24
F0.0
ssS'SHELBY REX'
p171
(dp172
g3
F211844.0
sg4
I225
sg5
F0.0
sg6
F2003885.0
sg7
F0.0
sg8
F0.0
sg9
F200000.0
sg10
F869220.0
sg11
F0.0
sg12
F2493616.0
sg13
F22884.0
sg14
I13
sg15
F1624396.0
sg16
I39
sg17
F1573324.0
sg18
I14
sg19
I01
sg20
F-4167.0
sg21
I91
sg22
S'rex.shelby@enron.com'
p173
sg24
F0.0
ssS'LEMAISTRE CHARLES'
p174
(dp175
g3
F0.0
sg4
g27
sg5
F0.0
sg6
F87492.0
sg7
F0.0
sg8
F0.0
sg9
F0.0
sg10
F0.0
sg11
F0.0
sg12
F412878.0
sg13
F0.0
sg14
g27
sg15
F412878.0
sg16
g27
sg17
F0.0
sg18
g27
sg19
I00
sg20
F-25000.0
sg21
g27
sg22
g27
sg24
F112492.0
ssS'DEFFNER JOSEPH M'
p176
(dp177
g3
F206121.0
sg4
I714
sg5
F0.0
sg6
F1208649.0
sg7
F335349.0
sg8
F0.0
sg9
F600000.0
sg10
F141833.0
sg11
F0.0
sg12
F159211.0
sg13
F41626.0
sg14
I115
sg15
F17378.0
sg16
I74
sg17
F25553.0
sg18
I4
sg19
I00
sg20
F0.0
sg21
I552
sg22
S'joseph.deffner@enron.com'
p178
sg24
F0.0
ssS'KISHKILL JOSEPH G'
p179
(dp180
g3
F174246.0
sg4
g27
sg5
F0.0
sg6
F704896.0
sg7
F0.0
sg8
F0.0
sg9
F0.0
sg10
F1034346.0
sg11
F0.0
sg12
F1034346.0
sg13
F116335.0
sg14
g27
sg15
F0.0
sg16
g27
sg17
F465357.0
sg18
g27
sg19
I00
sg20
F-51042.0
sg21
g27
sg22
S'joe.kishkill@enron.com'
p181
sg24
F0.0
ssS'WHALLEY LAWRENCE G'
p182
(dp183
g3
F510364.0
sg4
I6019
sg5
F0.0
sg6
F4677574.0
sg7
F808346.0
sg8
F0.0
sg9
F3000000.0
sg10
F2796177.0
sg11
F0.0
sg12
F6079137.0
sg13
F57838.0
sg14
I186
sg15
F3282960.0
sg16
I556
sg17
F301026.0
sg18
I24
sg19
I00
sg20
F0.0
sg21
I3920
sg22
S'greg.whalley@enron.com'
p184
sg24
F0.0
ssS'MCCARTY DANNY J'
p185
(dp186
g3
F0.0
sg4
I1433
sg5
F0.0
sg6
F0.0
sg7
F0.0
sg8
F0.0
sg9
F0.0
sg10
F94556.0
sg11
F0.0
sg12
F758931.0
sg13
F0.0
sg14
I25
sg15
F664375.0
sg16
I215
sg17
F0.0
sg18
I2
sg19
I00
sg20
F0.0
sg21
I508
sg22
S'danny.mccarty@enron.com'
p187
sg24
F0.0
ssS'MCCONNELL MICHAEL S'
p188
(dp189
g3
F365038.0
sg4
I3329
sg5
F0.0
sg6
F2101364.0
sg7
F554422.0
sg8
F0.0
sg9
F1100000.0
sg10
F1478269.0
sg11
F0.0
sg12
F3101279.0
sg13
F81364.0
sg14
I92
sg15
F1623010.0
sg16
I2742
sg17
F540.0
sg18
I194
sg19
I00
sg20
F0.0
sg21
I2189
sg22
S'mike.mcconnell@enron.com'
p190
sg24
F0.0
ssS'DELAINEY DAVID W'
p191
(dp192
g3
F365163.0
sg4
I3093
sg5
F0.0
sg6
F4747979.0
sg7
F1294981.0
sg8
F0.0
sg9
F3000000.0
sg10
F1323148.0
sg11
F0.0
sg12
F3614261.0
sg13
F86174.0
sg14
I66
sg15
F2291113.0
sg16
I3069
sg17
F1661.0
sg18
I609
sg19
I01
sg20
F0.0
sg21
I2097
sg22
S'david.delainey@enron.com'
p193
sg24
F0.0
ssS'SULLIVAN-SHAKLOVITZ COLLEEN'
p194
(dp195
g3
F162779.0
sg4
g27
sg5
F181993.0
sg6
F999356.0
sg7
F554422.0
sg8
F0.0
sg9
F100000.0
sg10
F0.0
sg11
F0.0
sg12
F1362375.0
sg13
F0.0
sg14
g27
sg15
F1362375.0
sg16
g27
sg17
F162.0
sg18
g27
sg19
I00
sg20
F0.0
sg21
g27
sg22
g27
sg24
F0.0
ssS'WROBEL BRUCE'
p196
(dp197
g3
F0.0
sg4
g27
sg5
F0.0
sg6
F0.0
sg7
F0.0
sg8
F0.0
sg9
F0.0
sg10
F0.0
sg11
F0.0
sg12
F139130.0
sg13
F0.0
sg14
g27
sg15
F139130.0
sg16
g27
sg17
F0.0
sg18
g27
sg19
I00
sg20
F0.0
sg21
g27
sg22
g27
sg24
F0.0
ssS'LINDHOLM TOD A'
p198
(dp199
g3
F236457.0
sg4
g27
sg5
F204075.0
sg6
F875889.0
sg7
F175000.0
sg8
F0.0
sg9
F200000.0
sg10
F514847.0
sg11
F0.0
sg12
F3064208.0
sg13
F57727.0
sg14
g27
sg15
F2549361.0
sg16
g27
sg17
F2630.0
sg18
g27
sg19
I00
sg20
F0.0
sg21
g27
sg22
S'tod.lindholm@enron.com'
p200
sg24
F0.0
ssS'MEYER JEROME J'
p201
(dp202
g3
F0.0
sg4
g27
sg5
F0.0
sg6
F2151.0
sg7
F0.0
sg8
F0.0
sg9
F0.0
sg10
F0.0
sg11
F0.0
sg12
F0.0
sg13
F2151.0
sg14
g27
sg15
F0.0
sg16
g27
sg17
F0.0
sg18
g27
sg19
I00
sg20
F-38346.0
sg21
g27
sg22
g27
sg24
F38346.0
ssS'LAY KENNETH L'
p203
(dp204
g3
F1072321.0
sg4
I4273
sg5
F202911.0
sg6
F103559793.0
sg7
F3600000.0
sg8
F81525000.0
sg9
F7000000.0
sg10
F14761694.0
sg11
F0.0
sg12
F49110078.0
sg13
F99832.0
sg14
I123
sg15
F34348384.0
sg16
I36
sg17
F10359729.0
sg18
I16
sg19
I01
sg20
F-300000.0
sg21
I2411
sg22
S'kenneth.lay@enron.com'
p205
sg24
F0.0
ssS'BUTTS ROBERT H'
p206
(dp207
g3
F261516.0
sg4
g27
sg5
F0.0
sg6
F1271582.0
sg7
F175000.0
sg8
F0.0
sg9
F750000.0
sg10
F417619.0
sg11
F0.0
sg12
F417619.0
sg13
F9410.0
sg14
g27
sg15
F0.0
sg16
g27
sg17
F150656.0
sg18
g27
sg19
I00
sg20
F-75000.0
sg21
g27
sg22
S'bob.butts@enron.com'
p208
sg24
F0.0
ssS'OLSON CINDY K'
p209
(dp210
g3
F329078.0
sg4
I1184
sg5
F77716.0
sg6
F1321557.0
sg7
F100000.0
sg8
F0.0
sg9
F750000.0
sg10
F969729.0
sg11
F0.0
sg12
F2606763.0
sg13
F63791.0
sg14
I20
sg15
F1637034.0
sg16
I52
sg17
F972.0
sg18
I15
sg19
I00
sg20
F0.0
sg21
I856
sg22
S'cindy.olson@enron.com'
p211
sg24
F0.0
ssS'MCDONALD REBECCA'
p212
(dp213
g3
F0.0
sg4
I894
sg5
F0.0
sg6
F0.0
sg7
F0.0
sg8
F0.0
sg9
F0.0
sg10
F934065.0
sg11
F0.0
sg12
F1691366.0
sg13
F0.0
sg14
I54
sg15
F757301.0
sg16
I13
sg17
F0.0
sg18
I1
sg19
I00
sg20
F0.0
sg21
I720
sg22
S'rebecca.mcdonald@enron.com'
p214
sg24
F0.0
ssS'CUMBERLAND MICHAEL S'
p215
(dp216
g3
F184899.0
sg4
g27
sg5
F0.0
sg6
F807956.0
sg7
F275000.0
sg8
F0.0
sg9
F325000.0
sg10
F207940.0
sg11
F0.0
sg12
F207940.0
sg13
F22344.0
sg14
g27
sg15
F0.0
sg16
g27
sg17
F713.0
sg18
g27
sg19
I00
sg20
F0.0
sg21
g27
sg22
g27
sg24
F0.0
ssS'GAHN ROBERT S'
p217
(dp218
g3
F192008.0
sg4
g27
sg5
F73122.0
sg6
F900585.0
sg7
F0.0
sg8
F0.0
sg9
F509870.0
sg10
F235370.0
sg11
F0.0
sg12
F318607.0
sg13
F50080.0
sg14
g27
sg15
F83237.0
sg16
g27
sg17
F76547.0
sg18
g27
sg19
I00
sg20
F-1042.0
sg21
g27
sg22
g27
sg24
F0.0
ssS'MCCLELLAN GEORGE'
p219
(dp220
g3
F263413.0
sg4
I1744
sg5
F0.0
sg6
F1318763.0
sg7
F0.0
sg8
F0.0
sg9
F900000.0
sg10
F441096.0
sg11
F0.0
sg12
F947861.0
sg13
F228763.0
sg14
I52
sg15
F506765.0
sg16
I49
sg17
F51587.0
sg18
I0
sg19
I00
sg20
F-125000.0
sg21
I1469
sg22
S'george.mcclellan@enron.com'
p221
sg24
F0.0
ssS'HERMANN ROBERT J'
p222
(dp223
g3
F262663.0
sg4
g27
sg5
F0.0
sg6
F1297461.0
sg7
F150000.0
sg8
F0.0
sg9
F700000.0
sg10
F480632.0
sg11
F0.0
sg12
F668132.0
sg13
F48357.0
sg14
g27
sg15
F187500.0
sg16
g27
sg17
F416441.0
sg18
g27
sg19
I00
sg20
F-280000.0
sg21
g27
sg22
S'robert.hermann@enron.com'
p224
sg24
F0.0
ssS'SCRIMSHAW MATTHEW'
p225
(dp226
g3
F0.0
sg4
g27
sg5
F0.0
sg6
F0.0
sg7
F0.0
sg8
F0.0
sg9
F0.0
sg10
F0.0
sg11
F0.0
sg12
F759557.0
sg13
F0.0
sg14
g27
sg15
F759557.0
sg16
g27
sg17
F0.0
sg18
g27
sg19
I00
sg20
F0.0
sg21
g27
sg22
S'matthew.scrimshaw@enron.com'
p227
sg24
F0.0
ssS'GATHMANN WILLIAM D'
p228
(dp229
g3
F0.0
sg4
g27
sg5
F0.0
sg6
F0.0
sg7
F0.0
sg8
F0.0
sg9
F0.0
sg10
F264013.0
sg11
F-72419.0
sg12
F1945360.0
sg13
F0.0
sg14
g27
sg15
F1753766.0
sg16
g27
sg17
F0.0
sg18
g27
sg19
I00
sg20
F0.0
sg21
g27
sg22
g27
sg24
F0.0
ssS'HAEDICKE MARK E'
p230
(dp231
g3
F374125.0
sg4
I4009
sg5
F2157527.0
sg6
F3859065.0
sg7
F983346.0
sg8
F0.0
sg9
F1150000.0
sg10
F524169.0
sg11
F-329825.0
sg12
F803094.0
sg13
F76169.0
sg14
I180
sg15
F608750.0
sg16
I1941
sg17
F52382.0
sg18
I61
sg19
I00
sg20
F-934484.0
sg21
I1847
sg22
S'mark.haedicke@enron.com'
p232
sg24
F0.0
ssS'BOWEN JR RAYMOND M'
p233
(dp234
g3
F278601.0
sg4
I1858
sg5
F0.0
sg6
F2669589.0
sg7
F974293.0
sg8
F0.0
sg9
F1350000.0
sg10
F252055.0
sg11
F0.0
sg12
F252055.0
sg13
F65907.0
sg14
I140
sg15
F0.0
sg16
I27
sg17
F1621.0
sg18
I15
sg19
I01
sg20
F-833.0
sg21
I1593
sg22
S'raymond.bowen@enron.com'
p235
sg24
F0.0
ssS'GILLIS JOHN'
p236
(dp237
g3
F0.0
sg4
g27
sg5
F0.0
sg6
F0.0
sg7
F0.0
sg8
F0.0
sg9
F0.0
sg10
F75838.0
sg11
F0.0
sg12
F85641.0
sg13
F0.0
sg14
g27
sg15
F9803.0
sg16
g27
sg17
F0.0
sg18
g27
sg19
I00
sg20
F0.0
sg21
g27
sg22
g27
sg24
F0.0
ssS'FITZGERALD JAY L'
p238
(dp239
g3
F199157.0
sg4
I936
sg5
F0.0
sg6
F1414857.0
sg7
F556416.0
sg8
F0.0
sg9
F350000.0
sg10
F956775.0
sg11
F0.0
sg12
F1621236.0
sg13
F23870.0
sg14
I1
sg15
F664461.0
sg16
I16
sg17
F285414.0
sg18
I8
sg19
I00
sg20
F0.0
sg21
I723
sg22
S'jay.fitzgerald@enron.com'
p240
sg24
F0.0
ssS'MORAN MICHAEL P'
p241
(dp242
g3
F0.0
sg4
I672
sg5
F0.0
sg6
F0.0
sg7
F0.0
sg8
F0.0
sg9
F0.0
sg10
F161602.0
sg11
F0.0
sg12
F221141.0
sg13
F0.0
sg14
I0
sg15
F59539.0
sg16
I19
sg17
F0.0
sg18
I0
sg19
I00
sg20
F0.0
sg21
I127
sg22
S'michael.moran@enron.com'
p243
sg24
F0.0
ssS'REDMOND BRIAN L'
p244
(dp245
g3
F96840.0
sg4
I1671
sg5
F0.0
sg6
F111529.0
sg7
F0.0
sg8
F0.0
sg9
F0.0
sg10
F381285.0
sg11
F0.0
sg12
F7890324.0
sg13
F14689.0
sg14
I204
sg15
F7509039.0
sg16
I221
sg17
F0.0
sg18
I49
sg19
I00
sg20
F0.0
sg21
I1063
sg22
S'brian.redmond@enron.com'
p246
sg24
F0.0
ssS'BAZELIDES PHILIP J'
p247
(dp248
g3
F80818.0
sg4
g27
sg5
F684694.0
sg6
F860136.0
sg7
F93750.0
sg8
F0.0
sg9
F0.0
sg10
F0.0
sg11
F0.0
sg12
F1599641.0
sg13
F0.0
sg14
g27
sg15
F1599641.0
sg16
g27
sg17
F874.0
sg18
g27
sg19
I00
sg20
F0.0
sg21
g27
sg22
g27
sg24
F0.0
ssS'BELDEN TIMOTHY N'
p249
(dp250
g3
F213999.0
sg4
I7991
sg5
F2144013.0
sg6
F5501630.0
sg7
F0.0
sg8
F0.0
sg9
F5249999.0
sg10
F157569.0
sg11
F0.0
sg12
F1110705.0
sg13
F17355.0
sg14
I228
sg15
F953136.0
sg16
I484
sg17
F210698.0
sg18
I108
sg19
I01
sg20
F-2334434.0
sg21
I5521
sg22
S'tim.belden@enron.com'
p251
sg24
F0.0
ssS'DURAN WILLIAM D'
p252
(dp253
g3
F210692.0
sg4
I904
sg5
F0.0
sg6
F2093263.0
sg7
F1105218.0
sg8
F0.0
sg9
F750000.0
sg10
F189041.0
sg11
F0.0
sg12
F1640910.0
sg13
F25785.0
sg14
I106
sg15
F1451869.0
sg16
I12
sg17
F1568.0
sg18
I3
sg19
I00
sg20
F0.0
sg21
I599
sg22
S'w.duran@enron.com'
p254
sg24
F0.0
ssS'THORN TERENCE H'
p255
(dp256
g3
F222093.0
sg4
I266
sg5
F16586.0
sg6
F911453.0
sg7
F200000.0
sg8
F0.0
sg9
F0.0
sg10
F365320.0
sg11
F0.0
sg12
F4817796.0
sg13
F46145.0
sg14
I0
sg15
F4452476.0
sg16
I41
sg17
F426629.0
sg18
I0
sg19
I00
sg20
F0.0
sg21
I73
sg22
S'terence.thorn@enron.com'
p257
sg24
F0.0
ssS'FASTOW ANDREW S'
p258
(dp259
g3
F440698.0
sg4
g27
sg5
F0.0
sg6
F2424083.0
sg7
F1736055.0
sg8
F0.0
sg9
F1300000.0
sg10
F1794412.0
sg11
F0.0
sg12
F1794412.0
sg13
F55921.0
sg14
g27
sg15
F0.0
sg16
g27
sg17
F277464.0
sg18
g27
sg19
I01
sg20
F-1386055.0
sg21
g27
sg22
S'andrew.fastow@enron.com'
p260
sg24
F0.0
ssS'FOY JOE'
p261
(dp262
g3
F0.0
sg4
I57
sg5
F181755.0
sg6
F181755.0
sg7
F0.0
sg8
F0.0
sg9
F0.0
sg10
F0.0
sg11
F0.0
sg12
F343434.0
sg13
F0.0
sg14
I0
sg15
F343434.0
sg16
I13
sg17
F0.0
sg18
I0
sg19
I00
sg20
F0.0
sg21
I2
sg22
S'tracy.foy@enron.com'
p263
sg24
F0.0
ssS'CALGER CHRISTOPHER F'
p264
(dp265
g3
F240189.0
sg4
I2598
sg5
F0.0
sg6
F1639297.0
sg7
F375304.0
sg8
F0.0
sg9
F1250000.0
sg10
F126027.0
sg11
F0.0
sg12
F126027.0
sg13
F35818.0
sg14
I199
sg15
F0.0
sg16
I144
sg17
F486.0
sg18
I25
sg19
I01
sg20
F-262500.0
sg21
I2188
sg22
S'christopher.calger@enron.com'
p266
sg24
F0.0
ssS'RICE KENNETH D'
p267
(dp268
g3
F420636.0
sg4
I905
sg5
F0.0
sg6
F505050.0
sg7
F1617011.0
sg8
F0.0
sg9
F1750000.0
sg10
F2748364.0
sg11
F0.0
sg12
F22542539.0
sg13
F46950.0
sg14
I42
sg15
F19794175.0
sg16
I18
sg17
F174839.0
sg18
I4
sg19
I01
sg20
F-3504386.0
sg21
I864
sg22
S'ken.rice@enron.com'
p269
sg24
F0.0
ssS'KAMINSKI WINCENTY J'
p270
(dp271
g3
F275101.0
sg4
I4607
sg5
F0.0
sg6
F1086821.0
sg7
F323466.0
sg8
F0.0
sg9
F400000.0
sg10
F126027.0
sg11
F0.0
sg12
F976037.0
sg13
F83585.0
sg14
I41
sg15
F850010.0
sg16
I14368
sg17
F4669.0
sg18
I171
sg19
I00
sg20
F0.0
sg21
I583
sg22
S'vince.kaminski@enron.com'
p272
sg24
F0.0
ssS'LOCKHART EUGENE E'
p273
(dp274
g3
F0.0
sg4
g27
sg5
F0.0
sg6
F0.0
sg7
F0.0
sg8
F0.0
sg9
F0.0
sg10
F0.0
sg11
F0.0
sg12
F0.0
sg13
F0.0
sg14
g27
sg15
F0.0
sg16
g27
sg17
F0.0
sg18
g27
sg19
I00
sg20
F0.0
sg21
g27
sg22
g27
sg24
F0.0
ssS'COX DAVID'
p275
(dp276
g3
F314288.0
sg4
I102
sg5
F0.0
sg6
F1101393.0
sg7
F0.0
sg8
F0.0
sg9
F800000.0
sg10
F378082.0
sg11
F0.0
sg12
F495633.0
sg13
F27861.0
sg14
I0
sg15
F117551.0
sg16
I33
sg17
F494.0
sg18
I4
sg19
I00
sg20
F-41250.0
sg21
I71
sg22
S'chip.cox@enron.com'
p277
sg24
F0.0
ssS'OVERDYKE JR JERE C'
p278
(dp279
g3
F94941.0
sg4
g27
sg5
F0.0
sg6
F249787.0
sg7
F135836.0
sg8
F0.0
sg9
F0.0
sg10
F2041016.0
sg11
F0.0
sg12
F7307594.0
sg13
F18834.0
sg14
g27
sg15
F5266578.0
sg16
g27
sg17
F176.0
sg18
g27
sg19
I00
sg20
F0.0
sg21
g27
sg22
S'jere.overdyke@enron.com'
p280
sg24
F0.0
ssS'PEREIRA PAULO V. FERRAZ'
p281
(dp282
g3
F0.0
sg4
g27
sg5
F0.0
sg6
F27942.0
sg7
F0.0
sg8
F0.0
sg9
F0.0
sg10
F0.0
sg11
F0.0
sg12
F0.0
sg13
F27942.0
sg14
g27
sg15
F0.0
sg16
g27
sg17
F0.0
sg18
g27
sg19
I00
sg20
F-101250.0
sg21
g27
sg22
g27
sg24
F101250.0
ssS'STABLER FRANK'
p283
(dp284
g3
F239502.0
sg4
g27
sg5
F0.0
sg6
F1112087.0
sg7
F0.0
sg8
F0.0
sg9
F500000.0
sg10
F511734.0
sg11
F0.0
sg12
F511734.0
sg13
F16514.0
sg14
g27
sg15
F0.0
sg16
g27
sg17
F356071.0
sg18
g27
sg19
I00
sg20
F0.0
sg21
g27
sg22
S'frank.stabler@enron.com'
p285
sg24
F0.0
ssS'SKILLING JEFFREY K'
p286
(dp287
g3
F1111258.0
sg4
I3627
sg5
F0.0
sg6
F8682716.0
sg7
F1920000.0
sg8
F0.0
sg9
F5600000.0
sg10
F6843672.0
sg11
F0.0
sg12
F26093672.0
sg13
F29336.0
sg14
I88
sg15
F19250000.0
sg16
I108
sg17
F22122.0
sg18
I30
sg19
I01
sg20
F0.0
sg21
I2042
sg22
S'jeff.skilling@enron.com'
p288
sg24
F0.0
ssS'BLAKE JR. NORMAN P'
p289
(dp290
g3
F0.0
sg4
g27
sg5
F0.0
sg6
F1279.0
sg7
F0.0
sg8
F0.0
sg9
F0.0
sg10
F0.0
sg11
F0.0
sg12
F0.0
sg13
F1279.0
sg14
g27
sg15
F0.0
sg16
g27
sg17
F0.0
sg18
g27
sg19
I00
sg20
F-113784.0
sg21
g27
sg22
g27
sg24
F113784.0
ssS'SHERRICK JEFFREY B'
p291
(dp292
g3
F0.0
sg4
I613
sg5
F0.0
sg6
F0.0
sg7
F0.0
sg8
F0.0
sg9
F0.0
sg10
F405999.0
sg11
F0.0
sg12
F1832468.0
sg13
F0.0
sg14
I39
sg15
F1426469.0
sg16
I25
sg17
F0.0
sg18
I18
sg19
I00
sg20
F0.0
sg21
I583
sg22
S'jeffrey.sherrick@enron.com'
p293
sg24
F0.0
ssS'PRENTICE JAMES'
p294
(dp295
g3
F0.0
sg4
g27
sg5
F564348.0
sg6
F564348.0
sg7
F0.0
sg8
F0.0
sg9
F0.0
sg10
F208809.0
sg11
F0.0
sg12
F1095040.0
sg13
F0.0
sg14
g27
sg15
F886231.0
sg16
g27
sg17
F0.0
sg18
g27
sg19
I00
sg20
F0.0
sg21
g27
sg22
S'james.prentice@enron.com'
p296
sg24
F0.0
ssS'GRAY RODNEY'
p297
(dp298
g3
F6615.0
sg4
g27
sg5
F93585.0
sg6
F1146658.0
sg7
F365625.0
sg8
F0.0
sg9
F0.0
sg10
F0.0
sg11
F0.0
sg12
F0.0
sg13
F0.0
sg14
g27
sg15
F0.0
sg16
g27
sg17
F680833.0
sg18
g27
sg19
I00
sg20
F0.0
sg21
g27
sg22
g27
sg24
F0.0
ssS'PICKERING MARK R'
p299
(dp300
g3
F655037.0
sg4
I898
sg5
F0.0
sg6
F1386690.0
sg7
F0.0
sg8
F400000.0
sg9
F300000.0
sg10
F0.0
sg11
F0.0
sg12
F28798.0
sg13
F31653.0
sg14
I7
sg15
F28798.0
sg16
I67
sg17
F0.0
sg18
I0
sg19
I00
sg20
F0.0
sg21
I728
sg22
S'mark.pickering@enron.com'
p301
sg24
F0.0
ssS'NOLES JAMES L'
p302
(dp303
g3
F0.0
sg4
g27
sg5
F774401.0
sg6
F774401.0
sg7
F0.0
sg8
F0.0
sg9
F0.0
sg10
F463261.0
sg11
F-94556.0
sg12
F368705.0
sg13
F0.0
sg14
g27
sg15
F0.0
sg16
g27
sg17
F0.0
sg18
g27
sg19
I00
sg20
F0.0
sg21
g27
sg22
g27
sg24
F0.0
ssS'KEAN STEVEN J'
p304
(dp305
g3
F404338.0
sg4
I12754
sg5
F0.0
sg6
F1747522.0
sg7
F300000.0
sg8
F0.0
sg9
F1000000.0
sg10
F4131594.0
sg11
F0.0
sg12
F6153642.0
sg13
F41953.0
sg14
I140
sg15
F2022048.0
sg16
I6759
sg17
F1231.0
sg18
I387
sg19
I00
sg20
F0.0
sg21
I3639
sg22
S'steven.kean@enron.com'
p306
sg24
F0.0
ssS'FOWLER PEGGY'
p307
(dp308
g3
F0.0
sg4
I517
sg5
F0.0
sg6
F0.0
sg7
F0.0
sg8
F0.0
sg9
F0.0
sg10
F560170.0
sg11
F0.0
sg12
F1884748.0
sg13
F0.0
sg14
I0
sg15
F1324578.0
sg16
I36
sg17
F0.0
sg18
I0
sg19
I00
sg20
F0.0
sg21
I10
sg22
S'kulvinder.fowler@enron.com'
p309
sg24
F0.0
ssS'WASAFF GEORGE'
p310
(dp311
g3
F259996.0
sg4
I400
sg5
F831299.0
sg6
F1034395.0
sg7
F200000.0
sg8
F0.0
sg9
F325000.0
sg10
F388167.0
sg11
F0.0
sg12
F2056427.0
sg13
F0.0
sg14
I22
sg15
F1668260.0
sg16
I30
sg17
F1425.0
sg18
I7
sg19
I00
sg20
F-583325.0
sg21
I337
sg22
S'george.wasaff@enron.com'
p312
sg24
F0.0
ssS'WHITE JR THOMAS E'
p313
(dp314
g3
F317543.0
sg4
g27
sg5
F0.0
sg6
F1934359.0
sg7
F0.0
sg8
F0.0
sg9
F450000.0
sg10
F13847074.0
sg11
F0.0
sg12
F15144123.0
sg13
F81353.0
sg14
g27
sg15
F1297049.0
sg16
g27
sg17
F1085463.0
sg18
g27
sg19
I00
sg20
F0.0
sg21
g27
sg22
S'thomas.white@enron.com'
p315
sg24
F0.0
ssS'CHRISTODOULOU DIOMEDES'
p316
(dp317
g3
F0.0
sg4
g27
sg5
F0.0
sg6
F0.0
sg7
F0.0
sg8
F0.0
sg9
F0.0
sg10
F950730.0
sg11
F0.0
sg12
F6077885.0
sg13
F0.0
sg14
g27
sg15
F5127155.0
sg16
g27
sg17
F0.0
sg18
g27
sg19
I00
sg20
F0.0
sg21
g27
sg22
S'diomedes.christodoulou@enron.com'
p318
sg24
F0.0
ssS'ALLEN PHILLIP K'
p319
(dp320
g3
F201955.0
sg4
I2902
sg5
F2869717.0
sg6
F4484442.0
sg7
F304805.0
sg8
F0.0
sg9
F4175000.0
sg10
F126027.0
sg11
F-126027.0
sg12
F1729541.0
sg13
F13868.0
sg14
I47
sg15
F1729541.0
sg16
I2195
sg17
F152.0
sg18
I65
sg19
I00
sg20
F-3081055.0
sg21
I1407
sg22
S'phillip.allen@enron.com'
p321
sg24
F0.0
ssS'SHARP VICTORIA T'
p322
(dp323
g3
F248146.0
sg4
I3136
sg5
F187469.0
sg6
F1576511.0
sg7
F422158.0
sg8
F0.0
sg9
F600000.0
sg10
F213063.0
sg11
F0.0
sg12
F494136.0
sg13
F116337.0
sg14
I24
sg15
F281073.0
sg16
I136
sg17
F2401.0
sg18
I6
sg19
I00
sg20
F0.0
sg21
I2477
sg22
S'vicki.sharp@enron.com'
p324
sg24
F0.0
ssS'JAEDICKE ROBERT'
p325
(dp326
g3
F0.0
sg4
g27
sg5
F0.0
sg6
F83750.0
sg7
F0.0
sg8
F0.0
sg9
F0.0
sg10
F44093.0
sg11
F-44093.0
sg12
F431750.0
sg13
F0.0
sg14
g27
sg15
F431750.0
sg16
g27
sg17
F0.0
sg18
g27
sg19
I00
sg20
F-25000.0
sg21
g27
sg22
g27
sg24
F108750.0
ssS'WINOKUR JR. HERBERT S'
p327
(dp328
g3
F0.0
sg4
g27
sg5
F0.0
sg6
F84992.0
sg7
F0.0
sg8
F0.0
sg9
F0.0
sg10
F0.0
sg11
F0.0
sg12
F0.0
sg13
F1413.0
sg14
g27
sg15
F0.0
sg16
g27
sg17
F0.0
sg18
g27
sg19
I00
sg20
F-25000.0
sg21
g27
sg22
g27
sg24
F108579.0
ssS'BROWN MICHAEL'
p329
(dp330
g3
F0.0
sg4
I1486
sg5
F0.0
sg6
F49288.0
sg7
F0.0
sg8
F0.0
sg9
F0.0
sg10
F0.0
sg11
F0.0
sg12
F0.0
sg13
F49288.0
sg14
I13
sg15
F0.0
sg16
I41
sg17
F0.0
sg18
I1
sg19
I00
sg20
F0.0
sg21
I761
sg22
S'michael.brown@enron.com'
p331
sg24
F0.0
ssS'BADUM JAMES P'
p332
(dp333
g3
F0.0
sg4
g27
sg5
F178980.0
sg6
F182466.0
sg7
F0.0
sg8
F0.0
sg9
F0.0
sg10
F0.0
sg11
F0.0
sg12
F257817.0
sg13
F3486.0
sg14
g27
sg15
F257817.0
sg16
g27
sg17
F0.0
sg18
g27
sg19
I00
sg20
F0.0
sg21
g27
sg22
g27
sg24
F0.0
ssS'HUGHES JAMES A'
p334
(dp335
g3
F0.0
sg4
I719
sg5
F0.0
sg6
F0.0
sg7
F0.0
sg8
F0.0
sg9
F0.0
sg10
F363428.0
sg11
F0.0
sg12
F1118394.0
sg13
F0.0
sg14
I35
sg15
F754966.0
sg16
I34
sg17
F0.0
sg18
I5
sg19
I00
sg20
F0.0
sg21
I589
sg22
S'james.hughes@enron.com'
p336
sg24
F0.0
ssS'REYNOLDS LAWRENCE'
p337
(dp338
g3
F76399.0
sg4
g27
sg5
F51365.0
sg6
F394475.0
sg7
F156250.0
sg8
F0.0
sg9
F100000.0
sg10
F201483.0
sg11
F-140264.0
sg12
F4221891.0
sg13
F8409.0
sg14
g27
sg15
F4160672.0
sg16
g27
sg17
F202052.0
sg18
g27
sg19
I00
sg20
F-200000.0
sg21
g27
sg22
g27
sg24
F0.0
ssS'DIMICHELE RICHARD G'
p339
(dp340
g3
F262788.0
sg4
g27
sg5
F0.0
sg6
F2368151.0
sg7
F694862.0
sg8
F0.0
sg9
F1000000.0
sg10
F126027.0
sg11
F0.0
sg12
F8317782.0
sg13
F35812.0
sg14
g27
sg15
F8191755.0
sg16
g27
sg17
F374689.0
sg18
g27
sg19
I00
sg20
F0.0
sg21
g27
sg22
S'richard.dimichele@enron.com'
p341
sg24
F0.0
ssS'BHATNAGAR SANJAY'
p342
(dp343
g3
F0.0
sg4
I523
sg5
F0.0
sg6
F15456290.0
sg7
F0.0
sg8
F0.0
sg9
F0.0
sg10
F-2604490.0
sg11
F15456290.0
sg12
F0.0
sg13
F0.0
sg14
I0
sg15
F2604490.0
sg16
I29
sg17
F137864.0
sg18
I1
sg19
I00
sg20
F0.0
sg21
I463
sg22
S'sanjay.bhatnagar@enron.com'
p344
sg24
F137864.0
ssS'CARTER REBECCA C'
p345
(dp346
g3
F261809.0
sg4
I312
sg5
F0.0
sg6
F477557.0
sg7
F75000.0
sg8
F0.0
sg9
F300000.0
sg10
F307301.0
sg11
F-307301.0
sg12
F0.0
sg13
F0.0
sg14
I29
sg15
F0.0
sg16
I15
sg17
F540.0
sg18
I7
sg19
I00
sg20
F-159792.0
sg21
I196
sg22
S'rebecca.carter@enron.com'
p347
sg24
F0.0
ssS'BUCHANAN HAROLD G'
p348
(dp349
g3
F248017.0
sg4
I1088
sg5
F0.0
sg6
F1054637.0
sg7
F304805.0
sg8
F0.0
sg9
F500000.0
sg10
F189041.0
sg11
F0.0
sg12
F1014505.0
sg13
F600.0
sg14
I0
sg15
F825464.0
sg16
I125
sg17
F1215.0
sg18
I0
sg19
I00
sg20
F0.0
sg21
I23
sg22
S'john.buchanan@enron.com'
p350
sg24
F0.0
ssS'YEAP SOON'
p351
(dp352
g3
F0.0
sg4
g27
sg5
F0.0
sg6
F55097.0
sg7
F0.0
sg8
F0.0
sg9
F0.0
sg10
F0.0
sg11
F0.0
sg12
F192758.0
sg13
F55097.0
sg14
g27
sg15
F192758.0
sg16
g27
sg17
F0.0
sg18
g27
sg19
I00
sg20
F0.0
sg21
g27
sg22
g27
sg24
F0.0
ssS'MURRAY JULIA H'
p353
(dp354
g3
F229284.0
sg4
I2192
sg5
F0.0
sg6
F812194.0
sg7
F125000.0
sg8
F0.0
sg9
F400000.0
sg10
F196983.0
sg11
F0.0
sg12
F597461.0
sg13
F57580.0
sg14
I11
sg15
F400478.0
sg16
I45
sg17
F330.0
sg18
I2
sg19
I00
sg20
F0.0
sg21
I395
sg22
S'julia.murray@enron.com'
p355
sg24
F0.0
ssS'GARLAND C KEVIN'
p356
(dp357
g3
F231946.0
sg4
I209
sg5
F0.0
sg6
F1566469.0
sg7
F375304.0
sg8
F0.0
sg9
F850000.0
sg10
F259907.0
sg11
F0.0
sg12
F896153.0
sg13
F48405.0
sg14
I10
sg15
F636246.0
sg16
I44
sg17
F60814.0
sg18
I27
sg19
I00
sg20
F0.0
sg21
I178
sg22
S'kevin.garland@enron.com'
p358
sg24
F0.0
ssS'DODSON KEITH'
p359
(dp360
g3
F221003.0
sg4
I176
sg5
F0.0
sg6
F319941.0
sg7
F0.0
sg8
F0.0
sg9
F70000.0
sg10
F0.0
sg11
F0.0
sg12
F0.0
sg13
F28164.0
sg14
I10
sg15
F0.0
sg16
I14
sg17
F774.0
sg18
I3
sg19
I00
sg20
F0.0
sg21
I114
sg22
S'keith.dodson@enron.com'
p361
sg24
F0.0
ssS'YEAGER F SCOTT'
p362
(dp363
g3
F158403.0
sg4
g27
sg5
F0.0
sg6
F360300.0
sg7
F0.0
sg8
F0.0
sg9
F0.0
sg10
F3576206.0
sg11
F0.0
sg12
F11884758.0
sg13
F53947.0
sg14
g27
sg15
F8308552.0
sg16
g27
sg17
F147950.0
sg18
g27
sg19
I01
sg20
F0.0
sg21
g27
sg22
S'scott.yeager@enron.com'
p364
sg24
F0.0
ssS'HIRKO JOSEPH'
p365
(dp366
g3
F0.0
sg4
g27
sg5
F10259.0
sg6
F91093.0
sg7
F0.0
sg8
F0.0
sg9
F0.0
sg10
F0.0
sg11
F0.0
sg12
F30766064.0
sg13
F77978.0
sg14
g27
sg15
F30766064.0
sg16
g27
sg17
F2856.0
sg18
g27
sg19
I01
sg20
F0.0
sg21
g27
sg22
S'joe.hirko@enron.com'
p367
sg24
F0.0
ssS'DIETRICH JANET R'
p368
(dp369
g3
F250100.0
sg4
I2572
sg5
F0.0
sg6
F1410464.0
sg7
F556416.0
sg8
F0.0
sg9
F600000.0
sg10
F315068.0
sg11
F0.0
sg12
F1865087.0
sg13
F3475.0
sg14
I305
sg15
F1550019.0
sg16
I63
sg17
F473.0
sg18
I14
sg19
I00
sg20
F0.0
sg21
I1902
sg22
S'janet.dietrich@enron.com'
p370
sg24
F0.0
ssS'DERRICK JR. JAMES V'
p371
(dp372
g3
F492375.0
sg4
I2181
sg5
F0.0
sg6
F550981.0
sg7
F484000.0
sg8
F0.0
sg9
F800000.0
sg10
F1787380.0
sg11
F-1787380.0
sg12
F8831913.0
sg13
F51124.0
sg14
I64
sg15
F8831913.0
sg16
I909
sg17
F7482.0
sg18
I20
sg19
I00
sg20
F-1284000.0
sg21
I1401
sg22
S'james.derrick@enron.com'
p373
sg24
F0.0
ssS'FREVERT MARK A'
p374
(dp375
g3
F1060932.0
sg4
I3275
sg5
F6426990.0
sg6
F17252530.0
sg7
F1617011.0
sg8
F2000000.0
sg9
F2000000.0
sg10
F4188667.0
sg11
F0.0
sg12
F14622185.0
sg13
F86987.0
sg14
I242
sg15
F10433518.0
sg16
I21
sg17
F7427621.0
sg18
I6
sg19
I00
sg20
F-3367011.0
sg21
I2979
sg22
S'mark.frevert@enron.com'
p376
sg24
F0.0
ssS'PAI LOU L'
p377
(dp378
g3
F261879.0
sg4
g27
sg5
F0.0
sg6
F3123383.0
sg7
F0.0
sg8
F0.0
sg9
F1000000.0
sg10
F8453763.0
sg11
F0.0
sg12
F23817930.0
sg13
F32047.0
sg14
g27
sg15
F15364167.0
sg16
g27
sg17
F1829457.0
sg18
g27
sg19
I00
sg20
F0.0
sg21
g27
sg22
S'lou.pai@enron.com'
p379
sg24
F0.0
ssS'BAY FRANKLIN R'
p380
(dp381
g3
F239671.0
sg4
g27
sg5
F260455.0
sg6
F827696.0
sg7
F0.0
sg8
F0.0
sg9
F400000.0
sg10
F145796.0
sg11
F-82782.0
sg12
F63014.0
sg13
F129142.0
sg14
g27
sg15
F0.0
sg16
g27
sg17
F69.0
sg18
g27
sg19
I00
sg20
F-201641.0
sg21
g27
sg22
S'frank.bay@enron.com'
p382
sg24
F0.0
ssS'HAYSLETT RODERICK J'
p383
(dp384
g3
F0.0
sg4
I2649
sg5
F0.0
sg6
F0.0
sg7
F0.0
sg8
F0.0
sg9
F0.0
sg10
F346663.0
sg11
F0.0
sg12
F346663.0
sg13
F0.0
sg14
I35
sg15
F0.0
sg16
I1061
sg17
F0.0
sg18
I38
sg19
I00
sg20
F0.0
sg21
I571
sg22
S'rod.hayslett@enron.com'
p385
sg24
F0.0
ssS'FUGH JOHN L'
p386
(dp387
g3
F0.0
sg4
g27
sg5
F50591.0
sg6
F50591.0
sg7
F0.0
sg8
F0.0
sg9
F0.0
sg10
F0.0
sg11
F0.0
sg12
F176378.0
sg13
F0.0
sg14
g27
sg15
F176378.0
sg16
g27
sg17
F0.0
sg18
g27
sg19
I00
sg20
F0.0
sg21
g27
sg22
g27
sg24
F0.0
ssS'FALLON JAMES B'
p388
(dp389
g3
F304588.0
sg4
I1755
sg5
F0.0
sg6
F3676340.0
sg7
F374347.0
sg8
F0.0
sg9
F2500000.0
sg10
F1392142.0
sg11
F0.0
sg12
F2332399.0
sg13
F95924.0
sg14
I42
sg15
F940257.0
sg16
I75
sg17
F401481.0
sg18
I37
sg19
I00
sg20
F0.0
sg21
I1604
sg22
S'jim.fallon@enron.com'
p390
sg24
F0.0
ssS'KOENIG MARK E'
p391
(dp392
g3
F309946.0
sg4
I2374
sg5
F0.0
sg6
F1587421.0
sg7
F300000.0
sg8
F0.0
sg9
F700000.0
sg10
F1248318.0
sg11
F0.0
sg12
F1920055.0
sg13
F127017.0
sg14
I53
sg15
F671737.0
sg16
I61
sg17
F150458.0
sg18
I15
sg19
I01
sg20
F0.0
sg21
I2271
sg22
S'mark.koenig@enron.com'
p393
sg24
F0.0
ssS'SAVAGE FRANK'
p394
(dp395
g3
F0.0
sg4
g27
sg5
F0.0
sg6
F3750.0
sg7
F0.0
sg8
F0.0
sg9
F0.0
sg10
F0.0
sg11
F0.0
sg12
F0.0
sg13
F0.0
sg14
g27
sg15
F0.0
sg16
g27
sg17
F0.0
sg18
g27
sg19
I00
sg20
F-121284.0
sg21
g27
sg22
g27
sg24
F125034.0
ssS'IZZO LAWRENCE L'
p396
(dp397
g3
F85274.0
sg4
I496
sg5
F0.0
sg6
F1979596.0
sg7
F312500.0
sg8
F0.0
sg9
F0.0
sg10
F3654808.0
sg11
F0.0
sg12
F5819980.0
sg13
F28093.0
sg14
I28
sg15
F2165172.0
sg16
I19
sg17
F1553729.0
sg18
I5
sg19
I00
sg20
F0.0
sg21
I437
sg22
S'larry.izzo@enron.com'
p398
sg24
F0.0
ssS'TILNEY ELIZABETH A'
p399
(dp400
g3
F247338.0
sg4
I460
sg5
F0.0
sg6
F399393.0
sg7
F275000.0
sg8
F0.0
sg9
F300000.0
sg10
F576792.0
sg11
F0.0
sg12
F1168042.0
sg13
F0.0
sg14
I10
sg15
F591250.0
sg16
I19
sg17
F152055.0
sg18
I11
sg19
I00
sg20
F-575000.0
sg21
I379
sg22
S'elizabeth.tilney@enron.com'
p401
sg24
F0.0
ssS'MARTIN AMANDA K'
p402
(dp403
g3
F349487.0
sg4
I1522
sg5
F85430.0
sg6
F8407016.0
sg7
F5145434.0
sg8
F0.0
sg9
F0.0
sg10
F0.0
sg11
F0.0
sg12
F2070306.0
sg13
F8211.0
sg14
I8
sg15
F2070306.0
sg16
I230
sg17
F2818454.0
sg18
I0
sg19
I00
sg20
F0.0
sg21
I477
sg22
S'a..martin@enron.com'
p404
sg24
F0.0
ssS'BUY RICHARD B'
p405
(dp406
g3
F330546.0
sg4
I3523
sg5
F649584.0
sg6
F2355702.0
sg7
F769862.0
sg8
F0.0
sg9
F900000.0
sg10
F901657.0
sg11
F0.0
sg12
F3444470.0
sg13
F0.0
sg14
I156
sg15
F2542813.0
sg16
I1053
sg17
F400572.0
sg18
I71
sg19
I00
sg20
F-694862.0
sg21
I2333
sg22
S'rick.buy@enron.com'
p407
sg24
F0.0
ssS'GRAMM WENDY L'
p408
(dp409
g3
F0.0
sg4
g27
sg5
F0.0
sg6
F119292.0
sg7
F0.0
sg8
F0.0
sg9
F0.0
sg10
F0.0
sg11
F0.0
sg12
F0.0
sg13
F0.0
sg14
g27
sg15
F0.0
sg16
g27
sg17
F0.0
sg18
g27
sg19
I00
sg20
F0.0
sg21
g27
sg22
g27
sg24
F119292.0
ssS'CAUSEY RICHARD A'
p410
(dp411
g3
F415189.0
sg4
I1892
sg5
F0.0
sg6
F1868758.0
sg7
F350000.0
sg8
F0.0
sg9
F1000000.0
sg10
F2502063.0
sg11
F0.0
sg12
F2502063.0
sg13
F30674.0
sg14
I58
sg15
F0.0
sg16
I49
sg17
F307895.0
sg18
I12
sg19
I01
sg20
F-235000.0
sg21
I1585
sg22
S'richard.causey@enron.com'
p412
sg24
F0.0
ssS'TAYLOR MITCHELL S'
p413
(dp414
g3
F265214.0
sg4
I533
sg5
F227449.0
sg6
F1092663.0
sg7
F0.0
sg8
F0.0
sg9
F600000.0
sg10
F563798.0
sg11
F0.0
sg12
F3745048.0
sg13
F0.0
sg14
I0
sg15
F3181250.0
sg16
I29
sg17
F0.0
sg18
I0
sg19
I00
sg20
F0.0
sg21
I300
sg22
S'mitchell.taylor@enron.com'
p415
sg24
F0.0
ssS'DONAHUE JR JEFFREY M'
p416
(dp417
g3
F278601.0
sg4
I865
sg5
F0.0
sg6
F875760.0
sg7
F0.0
sg8
F0.0
sg9
F800000.0
sg10
F315068.0
sg11
F0.0
sg12
F1080988.0
sg13
F96268.0
sg14
I188
sg15
F765920.0
sg16
I22
sg17
F891.0
sg18
I11
sg19
I00
sg20
F-300000.0
sg21
I772
sg22
S'jeff.donahue@enron.com'
p418
sg24
F0.0
ssS'GLISAN JR BEN F'
p419
(dp420
g3
F274975.0
sg4
I873
sg5
F0.0
sg6
F1272284.0
sg7
F71023.0
sg8
F0.0
sg9
F600000.0
sg10
F393818.0
sg11
F0.0
sg12
F778546.0
sg13
F125978.0
sg14
I52
sg15
F384728.0
sg16
I16
sg17
F200308.0
sg18
I6
sg19
I01
sg20
F0.0
sg21
I874
sg22
S'ben.glisan@enron.com'
p421
sg24
F0.0
ss.